; Function Attrs: nounwind uwtable
define internal range(i32 -1, 5) i32 @lj_ffh_ipairs(ptr noundef %0) #2 {
  %2 = tail call ptr @lj_lib_checkany(ptr noundef %0, i32 noundef 1) #11
  %3 = tail call ptr @lj_meta_lookup(ptr noundef %0, ptr noundef %2, i32 noundef 21) #11
  %4 = load i64, ptr %2, align 8, !tbaa !14
  %.mask.i = and i64 %4, -140737488355328
  switch i64 %.mask.i, label %.thread.i [
    i64 -1548112371908608, label %5
    i64 -1688849860263936, label %15
  ]

5:                                                ; preds = %1
  %6 = load i64, ptr %3, align 8, !tbaa !14
  %7 = icmp eq i64 %6, -1
  br i1 %7, label %.thread.i, label %8

8:                                                ; preds = %5
  %9 = getelementptr inbounds nuw i8, ptr %2, i64 8
  %10 = getelementptr inbounds nuw i8, ptr %0, i64 40
  store ptr %9, ptr %10, align 8, !tbaa !4
  %11 = getelementptr inbounds nuw i8, ptr %0, i64 32
  %12 = load ptr, ptr %11, align 8, !tbaa !19
  %13 = getelementptr inbounds i8, ptr %12, i64 -16
  %14 = load i64, ptr %3, align 8, !tbaa !14
  store i64 %14, ptr %13, align 8, !tbaa !14
  br label %ffh_pairs.exit

.thread.i:                                        ; preds = %5, %1
  tail call void @lj_err_argt(ptr noundef %0, i32 noundef 1, i32 noundef 5) #10
  unreachable

15:                                               ; preds = %1
  %16 = getelementptr inbounds i8, ptr %2, i64 -8
  store i64 %4, ptr %16, align 8, !tbaa !14
  %17 = getelementptr inbounds i8, ptr %2, i64 -16
  %18 = getelementptr inbounds nuw i8, ptr %0, i64 32
  %19 = load ptr, ptr %18, align 8, !tbaa !19
  %20 = getelementptr inbounds i8, ptr %19, i64 -16
  %21 = load i64, ptr %20, align 8, !tbaa !14
  %22 = and i64 %21, 140737488355327
  %23 = inttoptr i64 %22 to ptr
  %24 = getelementptr inbounds nuw i8, ptr %23, i64 48
  %25 = load i64, ptr %24, align 8, !tbaa !14
  %26 = and i64 %25, 140737488355327
  %27 = or disjoint i64 %26, -1266637395197952
  store i64 %27, ptr %17, align 8, !tbaa !14
  store double 0.000000e+00, ptr %2, align 8, !tbaa !14
  br label %ffh_pairs.exit

ffh_pairs.exit:                                   ; preds = %8, %15
  %.0.i = phi i32 [ -1, %8 ], [ 4, %15 ]
  ret i32 %.0.i
}